target datalayout = "e-m:e-p270:32:32-p271:32:32-p272:64:64-i64:64-i128:128-f80:128-n8:16:32:64-S128"
target triple = "x86_64-unknown-linux-gnu"

%"class.OpenColorIO_v2_4dev::ImageDesc" = type { ptr }
%"class.OpenColorIO_v2_4dev::PlanarImageDesc" = type { %"class.OpenColorIO_v2_4dev::ImageDesc", ptr }
%"struct.OpenColorIO_v2_4dev::PlanarImageDesc::Impl" = type <{ ptr, ptr, ptr, ptr, i32, [4 x i8], i64, i64, i64, i64, i8, [7 x i8] }>

@_ZTIN19OpenColorIO_v2_4dev9ExceptionE = external constant ptr
@.str.21 = private unnamed_addr constant [45 x i8] c"PlanarImageDesc Error: Invalid image buffer.\00", align 1
@.str.22 = private unnamed_addr constant [49 x i8] c"PlanarImageDesc Error: Invalid image dimensions.\00", align 1

; Function Attrs: mustprogress nounwind uwtable
define void @_ZN19OpenColorIO_v2_4dev9ImageDescD2Ev(ptr noundef nonnull align 8 dereferenceable(8) %this) unnamed_addr #6 align 2 {
entry:
  %this.addr = alloca ptr, align 8
  store ptr %this, ptr %this.addr, align 8
  ret void
}

; Function Attrs: mustprogress nounwind uwtable
define linkonce_odr hidden noundef zeroext i1 @_ZNK19OpenColorIO_v2_4dev15PlanarImageDesc4Impl7isFloatEv(ptr noundef nonnull align 8 dereferenceable(73) %this) #6 comdat align 2 {
entry:
  %this.addr = alloca ptr, align 8
  store ptr %this, ptr %this.addr, align 8
  %this1 = load ptr, ptr %this.addr, align 8
  %m_xStrideBytes = getelementptr inbounds %"struct.OpenColorIO_v2_4dev::PlanarImageDesc::Impl", ptr %this1, i32 0, i32 8
  %0 = load i64, ptr %m_xStrideBytes, align 8
  %cmp = icmp eq i64 %0, 4
  br i1 %cmp, label %land.rhs, label %land.end

land.rhs:                                         ; preds = %entry
  %m_bitDepth = getelementptr inbounds %"struct.OpenColorIO_v2_4dev::PlanarImageDesc::Impl", ptr %this1, i32 0, i32 4
  %1 = load i32, ptr %m_bitDepth, align 8
  %cmp2 = icmp eq i32 %1, 8
  br label %land.end

land.end:                                         ; preds = %land.rhs, %entry
  %2 = phi i1 [ false, %entry ], [ %cmp2, %land.rhs ]
  ret i1 %2
}

; Function Attrs: mustprogress nounwind uwtable
define linkonce_odr hidden noundef ptr @_ZN19OpenColorIO_v2_4dev15PlanarImageDesc7getImplEv(ptr noundef nonnull align 8 dereferenceable(16) %this) #6 comdat align 2 {
entry:
  %this.addr = alloca ptr, align 8
  store ptr %this, ptr %this.addr, align 8
  %this1 = load ptr, ptr %this.addr, align 8
  %m_impl = getelementptr inbounds %"class.OpenColorIO_v2_4dev::PlanarImageDesc", ptr %this1, i32 0, i32 1
  %0 = load ptr, ptr %m_impl, align 8
  ret ptr %0
}

; Function Attrs: mustprogress nounwind uwtable
define linkonce_odr hidden void @_ZN19OpenColorIO_v2_4dev15PlanarImageDesc4ImplC2Ev(ptr noundef nonnull align 8 dereferenceable(73) %this) unnamed_addr #6 comdat align 2 {
entry:
  %this.addr = alloca ptr, align 8
  store ptr %this, ptr %this.addr, align 8
  %this1 = load ptr, ptr %this.addr, align 8
  %m_rData = getelementptr inbounds %"struct.OpenColorIO_v2_4dev::PlanarImageDesc::Impl", ptr %this1, i32 0, i32 0
  store ptr null, ptr %m_rData, align 8
  %m_gData = getelementptr inbounds %"struct.OpenColorIO_v2_4dev::PlanarImageDesc::Impl", ptr %this1, i32 0, i32 1
  store ptr null, ptr %m_gData, align 8
  %m_bData = getelementptr inbounds %"struct.OpenColorIO_v2_4dev::PlanarImageDesc::Impl", ptr %this1, i32 0, i32 2
  store ptr null, ptr %m_bData, align 8
  %m_aData = getelementptr inbounds %"struct.OpenColorIO_v2_4dev::PlanarImageDesc::Impl", ptr %this1, i32 0, i32 3
  store ptr null, ptr %m_aData, align 8
  %m_bitDepth = getelementptr inbounds %"struct.OpenColorIO_v2_4dev::PlanarImageDesc::Impl", ptr %this1, i32 0, i32 4
  store i32 0, ptr %m_bitDepth, align 8
  %m_width = getelementptr inbounds %"struct.OpenColorIO_v2_4dev::PlanarImageDesc::Impl", ptr %this1, i32 0, i32 6
  store i64 0, ptr %m_width, align 8
  %m_height = getelementptr inbounds %"struct.OpenColorIO_v2_4dev::PlanarImageDesc::Impl", ptr %this1, i32 0, i32 7
  store i64 0, ptr %m_height, align 8
  %m_xStrideBytes = getelementptr inbounds %"struct.OpenColorIO_v2_4dev::PlanarImageDesc::Impl", ptr %this1, i32 0, i32 8
  store i64 0, ptr %m_xStrideBytes, align 8
  %m_yStrideBytes = getelementptr inbounds %"struct.OpenColorIO_v2_4dev::PlanarImageDesc::Impl", ptr %this1, i32 0, i32 9
  store i64 0, ptr %m_yStrideBytes, align 8
  %m_isFloat = getelementptr inbounds %"struct.OpenColorIO_v2_4dev::PlanarImageDesc::Impl", ptr %this1, i32 0, i32 10
  store i8 0, ptr %m_isFloat, align 8
  ret void
}

; Function Attrs: mustprogress nounwind uwtable
define void @_ZN19OpenColorIO_v2_4dev9ImageDescC2Ev(ptr noundef nonnull align 8 dereferenceable(8) %this) unnamed_addr #6 align 2 {
entry:
  %this.addr = alloca ptr, align 8
  store ptr %this, ptr %this.addr, align 8
  %this1 = load ptr, ptr %this.addr, align 8
  store ptr getelementptr inbounds ({ [15 x ptr] }, ptr @_ZTVN19OpenColorIO_v2_4dev9ImageDescE, i32 0, i32 0, i32 2), ptr %this1, align 8
  ret void
}

; Function Attrs: mustprogress uwtable
define void @_ZN19OpenColorIO_v2_4dev15PlanarImageDescC2EPvS1_S1_S1_ll(ptr noundef nonnull align 8 dereferenceable(16) %this, ptr noundef %rData, ptr noundef %gData, ptr noundef %bData, ptr noundef %aData, i64 noundef %width, i64 noundef %height) unnamed_addr #4 align 2 personality ptr @__gxx_personality_v0 {
entry:
  %this.addr = alloca ptr, align 8
  %rData.addr = alloca ptr, align 8
  %gData.addr = alloca ptr, align 8
  %bData.addr = alloca ptr, align 8
  %aData.addr = alloca ptr, align 8
  %width.addr = alloca i64, align 8
  %height.addr = alloca i64, align 8
  %exn.slot = alloca ptr, align 8
  %ehselector.slot = alloca i32, align 4
  store ptr %this, ptr %this.addr, align 8
  store ptr %rData, ptr %rData.addr, align 8
  store ptr %gData, ptr %gData.addr, align 8
  store ptr %bData, ptr %bData.addr, align 8
  store ptr %aData, ptr %aData.addr, align 8
  store i64 %width, ptr %width.addr, align 8
  store i64 %height, ptr %height.addr, align 8
  %this1 = load ptr, ptr %this.addr, align 8
  call void @_ZN19OpenColorIO_v2_4dev9ImageDescC2Ev(ptr noundef nonnull align 8 dereferenceable(8) %this1)
  store ptr getelementptr inbounds ({ [15 x ptr] }, ptr @_ZTVN19OpenColorIO_v2_4dev15PlanarImageDescE, i32 0, i32 0, i32 2), ptr %this1, align 8
  %m_impl = getelementptr inbounds %"class.OpenColorIO_v2_4dev::PlanarImageDesc", ptr %this1, i32 0, i32 1
  %call = invoke noalias noundef nonnull ptr @_Znwm(i64 noundef 80) #16
          to label %invoke.cont unwind label %lpad

invoke.cont:                                      ; preds = %entry
  call void @llvm.memset.p0.i64(ptr align 16 %call, i8 0, i64 80, i1 false)
  call void @_ZN19OpenColorIO_v2_4dev15PlanarImageDesc4ImplC2Ev(ptr noundef nonnull align 8 dereferenceable(73) %call) #3
  store ptr %call, ptr %m_impl, align 8
  %0 = load ptr, ptr %rData.addr, align 8
  %cmp = icmp eq ptr %0, null
  br i1 %cmp, label %if.then, label %lor.lhs.false

lor.lhs.false:                                    ; preds = %invoke.cont
  %1 = load ptr, ptr %gData.addr, align 8
  %cmp2 = icmp eq ptr %1, null
  br i1 %cmp2, label %if.then, label %lor.lhs.false3

lor.lhs.false3:                                   ; preds = %lor.lhs.false
  %2 = load ptr, ptr %bData.addr, align 8
  %cmp4 = icmp eq ptr %2, null
  br i1 %cmp4, label %if.then, label %if.end

if.then:                                          ; preds = %lor.lhs.false3, %lor.lhs.false, %invoke.cont
  %exception = call ptr @__cxa_allocate_exception(i64 16) #3
  invoke void @_ZN19OpenColorIO_v2_4dev9ExceptionC1EPKc(ptr noundef nonnull align 8 dereferenceable(16) %exception, ptr noundef @.str.21)
          to label %invoke.cont6 unwind label %lpad5

invoke.cont6:                                     ; preds = %if.then
  invoke void @__cxa_throw(ptr %exception, ptr @_ZTIN19OpenColorIO_v2_4dev9ExceptionE, ptr @_ZN19OpenColorIO_v2_4dev9ExceptionD1Ev) #15
          to label %unreachable unwind label %lpad

lpad:                                             ; preds = %invoke.cont42, %invoke.cont40, %invoke.cont38, %invoke.cont36, %invoke.cont34, %invoke.cont31, %invoke.cont29, %invoke.cont27, %invoke.cont25, %invoke.cont23, %invoke.cont21, %invoke.cont19, %invoke.cont17, %invoke.cont15, %if.end14, %invoke.cont13, %invoke.cont6, %entry
  %3 = landingpad { ptr, i32 }
          cleanup
  %4 = extractvalue { ptr, i32 } %3, 0
  store ptr %4, ptr %exn.slot, align 8
  %5 = extractvalue { ptr, i32 } %3, 1
  store i32 %5, ptr %ehselector.slot, align 4
  br label %ehcleanup

lpad5:                                            ; preds = %if.then
  %6 = landingpad { ptr, i32 }
          cleanup
  %7 = extractvalue { ptr, i32 } %6, 0
  store ptr %7, ptr %exn.slot, align 8
  %8 = extractvalue { ptr, i32 } %6, 1
  store i32 %8, ptr %ehselector.slot, align 4
  call void @__cxa_free_exception(ptr %exception) #3
  br label %ehcleanup

if.end:                                           ; preds = %lor.lhs.false3
  %9 = load i64, ptr %width.addr, align 8
  %cmp7 = icmp sle i64 %9, 0
  br i1 %cmp7, label %if.then10, label %lor.lhs.false8

lor.lhs.false8:                                   ; preds = %if.end
  %10 = load i64, ptr %height.addr, align 8
  %cmp9 = icmp sle i64 %10, 0
  br i1 %cmp9, label %if.then10, label %if.end14

if.then10:                                        ; preds = %lor.lhs.false8, %if.end
  %exception11 = call ptr @__cxa_allocate_exception(i64 16) #3
  invoke void @_ZN19OpenColorIO_v2_4dev9ExceptionC1EPKc(ptr noundef nonnull align 8 dereferenceable(16) %exception11, ptr noundef @.str.22)
          to label %invoke.cont13 unwind label %lpad12

invoke.cont13:                                    ; preds = %if.then10
  invoke void @__cxa_throw(ptr %exception11, ptr @_ZTIN19OpenColorIO_v2_4dev9ExceptionE, ptr @_ZN19OpenColorIO_v2_4dev9ExceptionD1Ev) #15
          to label %unreachable unwind label %lpad

lpad12:                                           ; preds = %if.then10
  %11 = landingpad { ptr, i32 }
          cleanup
  %12 = extractvalue { ptr, i32 } %11, 0
  store ptr %12, ptr %exn.slot, align 8
  %13 = extractvalue { ptr, i32 } %11, 1
  store i32 %13, ptr %ehselector.slot, align 4
  call void @__cxa_free_exception(ptr %exception11) #3
  br label %ehcleanup

if.end14:                                         ; preds = %lor.lhs.false8
  %call16 = invoke noundef ptr @_ZN19OpenColorIO_v2_4dev15PlanarImageDesc7getImplEv(ptr noundef nonnull align 8 dereferenceable(16) %this1)
          to label %invoke.cont15 unwind label %lpad

invoke.cont15:                                    ; preds = %if.end14
  %m_bitDepth = getelementptr inbounds %"struct.OpenColorIO_v2_4dev::PlanarImageDesc::Impl", ptr %call16, i32 0, i32 4
  store i32 8, ptr %m_bitDepth, align 8
  %14 = load ptr, ptr %rData.addr, align 8
  %call18 = invoke noundef ptr @_ZN19OpenColorIO_v2_4dev15PlanarImageDesc7getImplEv(ptr noundef nonnull align 8 dereferenceable(16) %this1)
          to label %invoke.cont17 unwind label %lpad

invoke.cont17:                                    ; preds = %invoke.cont15
  %m_rData = getelementptr inbounds %"struct.OpenColorIO_v2_4dev::PlanarImageDesc::Impl", ptr %call18, i32 0, i32 0
  store ptr %14, ptr %m_rData, align 8
  %15 = load ptr, ptr %gData.addr, align 8
  %call20 = invoke noundef ptr @_ZN19OpenColorIO_v2_4dev15PlanarImageDesc7getImplEv(ptr noundef nonnull align 8 dereferenceable(16) %this1)
          to label %invoke.cont19 unwind label %lpad

invoke.cont19:                                    ; preds = %invoke.cont17
  %m_gData = getelementptr inbounds %"struct.OpenColorIO_v2_4dev::PlanarImageDesc::Impl", ptr %call20, i32 0, i32 1
  store ptr %15, ptr %m_gData, align 8
  %16 = load ptr, ptr %bData.addr, align 8
  %call22 = invoke noundef ptr @_ZN19OpenColorIO_v2_4dev15PlanarImageDesc7getImplEv(ptr noundef nonnull align 8 dereferenceable(16) %this1)
          to label %invoke.cont21 unwind label %lpad

invoke.cont21:                                    ; preds = %invoke.cont19
  %m_bData = getelementptr inbounds %"struct.OpenColorIO_v2_4dev::PlanarImageDesc::Impl", ptr %call22, i32 0, i32 2
  store ptr %16, ptr %m_bData, align 8
  %17 = load ptr, ptr %aData.addr, align 8
  %call24 = invoke noundef ptr @_ZN19OpenColorIO_v2_4dev15PlanarImageDesc7getImplEv(ptr noundef nonnull align 8 dereferenceable(16) %this1)
          to label %invoke.cont23 unwind label %lpad

invoke.cont23:                                    ; preds = %invoke.cont21
  %m_aData = getelementptr inbounds %"struct.OpenColorIO_v2_4dev::PlanarImageDesc::Impl", ptr %call24, i32 0, i32 3
  store ptr %17, ptr %m_aData, align 8
  %18 = load i64, ptr %width.addr, align 8
  %call26 = invoke noundef ptr @_ZN19OpenColorIO_v2_4dev15PlanarImageDesc7getImplEv(ptr noundef nonnull align 8 dereferenceable(16) %this1)
          to label %invoke.cont25 unwind label %lpad

invoke.cont25:                                    ; preds = %invoke.cont23
  %m_width = getelementptr inbounds %"struct.OpenColorIO_v2_4dev::PlanarImageDesc::Impl", ptr %call26, i32 0, i32 6
  store i64 %18, ptr %m_width, align 8
  %19 = load i64, ptr %height.addr, align 8
  %call28 = invoke noundef ptr @_ZN19OpenColorIO_v2_4dev15PlanarImageDesc7getImplEv(ptr noundef nonnull align 8 dereferenceable(16) %this1)
          to label %invoke.cont27 unwind label %lpad

invoke.cont27:                                    ; preds = %invoke.cont25
  %m_height = getelementptr inbounds %"struct.OpenColorIO_v2_4dev::PlanarImageDesc::Impl", ptr %call28, i32 0, i32 7
  store i64 %19, ptr %m_height, align 8
  %call30 = invoke noundef ptr @_ZN19OpenColorIO_v2_4dev15PlanarImageDesc7getImplEv(ptr noundef nonnull align 8 dereferenceable(16) %this1)
          to label %invoke.cont29 unwind label %lpad

invoke.cont29:                                    ; preds = %invoke.cont27
  %m_xStrideBytes = getelementptr inbounds %"struct.OpenColorIO_v2_4dev::PlanarImageDesc::Impl", ptr %call30, i32 0, i32 8
  store i64 4, ptr %m_xStrideBytes, align 8
  %call32 = invoke noundef ptr @_ZN19OpenColorIO_v2_4dev15PlanarImageDesc7getImplEv(ptr noundef nonnull align 8 dereferenceable(16) %this1)
          to label %invoke.cont31 unwind label %lpad

invoke.cont31:                                    ; preds = %invoke.cont29
  %m_xStrideBytes33 = getelementptr inbounds %"struct.OpenColorIO_v2_4dev::PlanarImageDesc::Impl", ptr %call32, i32 0, i32 8
  %20 = load i64, ptr %m_xStrideBytes33, align 8
  %21 = load i64, ptr %width.addr, align 8
  %mul = mul nsw i64 %20, %21
  %call35 = invoke noundef ptr @_ZN19OpenColorIO_v2_4dev15PlanarImageDesc7getImplEv(ptr noundef nonnull align 8 dereferenceable(16) %this1)
          to label %invoke.cont34 unwind label %lpad

invoke.cont34:                                    ; preds = %invoke.cont31
  %m_yStrideBytes = getelementptr inbounds %"struct.OpenColorIO_v2_4dev::PlanarImageDesc::Impl", ptr %call35, i32 0, i32 9
  store i64 %mul, ptr %m_yStrideBytes, align 8
  %call37 = invoke noundef ptr @_ZN19OpenColorIO_v2_4dev15PlanarImageDesc7getImplEv(ptr noundef nonnull align 8 dereferenceable(16) %this1)
          to label %invoke.cont36 unwind label %lpad

invoke.cont36:                                    ; preds = %invoke.cont34
  %call39 = invoke noundef zeroext i1 @_ZNK19OpenColorIO_v2_4dev15PlanarImageDesc4Impl7isFloatEv(ptr noundef nonnull align 8 dereferenceable(73) %call37)
          to label %invoke.cont38 unwind label %lpad

invoke.cont38:                                    ; preds = %invoke.cont36
  %call41 = invoke noundef ptr @_ZN19OpenColorIO_v2_4dev15PlanarImageDesc7getImplEv(ptr noundef nonnull align 8 dereferenceable(16) %this1)
          to label %invoke.cont40 unwind label %lpad

invoke.cont40:                                    ; preds = %invoke.cont38
  %m_isFloat = getelementptr inbounds %"struct.OpenColorIO_v2_4dev::PlanarImageDesc::Impl", ptr %call41, i32 0, i32 10
  %frombool = zext i1 %call39 to i8
  store i8 %frombool, ptr %m_isFloat, align 8
  %call43 = invoke noundef ptr @_ZN19OpenColorIO_v2_4dev15PlanarImageDesc7getImplEv(ptr noundef nonnull align 8 dereferenceable(16) %this1)
          to label %invoke.cont42 unwind label %lpad

invoke.cont42:                                    ; preds = %invoke.cont40
  invoke void @_ZNK19OpenColorIO_v2_4dev15PlanarImageDesc4Impl8validateEv(ptr noundef nonnull align 8 dereferenceable(73) %call43)
          to label %invoke.cont44 unwind label %lpad

invoke.cont44:                                    ; preds = %invoke.cont42
  ret void

ehcleanup:                                        ; preds = %lpad12, %lpad5, %lpad
  call void @_ZN19OpenColorIO_v2_4dev9ImageDescD2Ev(ptr noundef nonnull align 8 dereferenceable(8) %this1) #3
  br label %eh.resume

eh.resume:                                        ; preds = %ehcleanup
  %exn = load ptr, ptr %exn.slot, align 8
  %sel = load i32, ptr %ehselector.slot, align 4
  %lpad.val = insertvalue { ptr, i32 } poison, ptr %exn, 0
  %lpad.val45 = insertvalue { ptr, i32 } %lpad.val, i32 %sel, 1
  resume { ptr, i32 } %lpad.val45

unreachable:                                      ; preds = %invoke.cont13, %invoke.cont6
  unreachable
}