; Function Attrs: mustprogress uwtable
define void @_ZN19OpenColorIO_v2_4dev15PlanarImageDescC2EPvS1_S1_S1_ll(ptr nocapture noundef nonnull writeonly align 8 dereferenceable(16) %this, ptr noundef %rData, ptr noundef %gData, ptr noundef %bData, ptr noundef %aData, i64 noundef %width, i64 noundef %height) unnamed_addr #3 align 2 personality ptr @__gxx_personality_v0 {
entry:
  store ptr getelementptr inbounds ({ [15 x ptr] }, ptr @_ZTVN19OpenColorIO_v2_4dev15PlanarImageDescE, i64 0, i32 0, i64 2), ptr %this, align 8
  %call = tail call noalias noundef nonnull dereferenceable(80) ptr @_Znwm(i64 noundef 80) #21
  %m_impl = getelementptr inbounds i8, ptr %this, i64 8
  tail call void @llvm.memset.p0.i64(ptr noundef nonnull align 8 dereferenceable(80) %call, i8 0, i64 80, i1 false)
  store ptr %call, ptr %m_impl, align 8
  %cmp = icmp eq ptr %rData, null
  %cmp2 = icmp eq ptr %gData, null
  %or.cond = or i1 %cmp, %cmp2
  %cmp4 = icmp eq ptr %bData, null
  %or.cond1 = or i1 %or.cond, %cmp4
  br i1 %or.cond1, label %if.then, label %if.end

if.then:                                          ; preds = %entry
  %exception = tail call ptr @__cxa_allocate_exception(i64 16) #18
  invoke void @_ZN19OpenColorIO_v2_4dev9ExceptionC1EPKc(ptr noundef nonnull align 8 dereferenceable(16) %exception, ptr noundef nonnull @.str.21)
          to label %invoke.cont6 unwind label %lpad5

invoke.cont6:                                     ; preds = %if.then
  tail call void @__cxa_throw(ptr nonnull %exception, ptr nonnull @_ZTIN19OpenColorIO_v2_4dev9ExceptionE, ptr nonnull @_ZN19OpenColorIO_v2_4dev9ExceptionD1Ev) #20
  unreachable

lpad5:                                            ; preds = %if.then
  %0 = landingpad { ptr, i32 }
          cleanup
  br label %ehcleanup

if.end:                                           ; preds = %entry
  %cmp7 = icmp slt i64 %width, 1
  %cmp9 = icmp slt i64 %height, 1
  %or.cond2 = or i1 %cmp7, %cmp9
  br i1 %or.cond2, label %if.then10, label %if.end14

if.then10:                                        ; preds = %if.end
  %exception11 = tail call ptr @__cxa_allocate_exception(i64 16) #18
  invoke void @_ZN19OpenColorIO_v2_4dev9ExceptionC1EPKc(ptr noundef nonnull align 8 dereferenceable(16) %exception11, ptr noundef nonnull @.str.22)
          to label %invoke.cont13 unwind label %lpad12

invoke.cont13:                                    ; preds = %if.then10
  tail call void @__cxa_throw(ptr nonnull %exception11, ptr nonnull @_ZTIN19OpenColorIO_v2_4dev9ExceptionE, ptr nonnull @_ZN19OpenColorIO_v2_4dev9ExceptionD1Ev) #20
  unreachable

lpad12:                                           ; preds = %if.then10
  %1 = landingpad { ptr, i32 }
          cleanup
  br label %ehcleanup

if.end14:                                         ; preds = %if.end
  %m_width.i = getelementptr inbounds i8, ptr %call, i64 40
  %m_bitDepth = getelementptr inbounds i8, ptr %call, i64 32
  store i32 8, ptr %m_bitDepth, align 8
  store ptr %rData, ptr %call, align 8
  %m_gData = getelementptr inbounds i8, ptr %call, i64 8
  store ptr %gData, ptr %m_gData, align 8
  %m_bData = getelementptr inbounds i8, ptr %call, i64 16
  store ptr %bData, ptr %m_bData, align 8
  %m_aData = getelementptr inbounds i8, ptr %call, i64 24
  store ptr %aData, ptr %m_aData, align 8
  store i64 %width, ptr %m_width.i, align 8
  %m_height = getelementptr inbounds i8, ptr %call, i64 48
  store i64 %height, ptr %m_height, align 8
  %m_xStrideBytes = getelementptr inbounds i8, ptr %call, i64 56
  store i64 4, ptr %m_xStrideBytes, align 8
  %mul = shl nsw i64 %width, 2
  %m_yStrideBytes = getelementptr inbounds i8, ptr %call, i64 64
  store i64 %mul, ptr %m_yStrideBytes, align 8
  %m_isFloat = getelementptr inbounds i8, ptr %call, i64 72
  store i8 1, ptr %m_isFloat, align 8
  tail call void @_ZNK19OpenColorIO_v2_4dev15PlanarImageDesc4Impl8validateEv(ptr noundef nonnull align 8 dereferenceable(73) %call)
  ret void

ehcleanup:                                        ; preds = %lpad12, %lpad5
  %exception11.sink = phi ptr [ %exception11, %lpad12 ], [ %exception, %lpad5 ]
  %.pn = phi { ptr, i32 } [ %1, %lpad12 ], [ %0, %lpad5 ]
  tail call void @__cxa_free_exception(ptr %exception11.sink) #18
  resume { ptr, i32 } %.pn
}